target datalayout = "e-m:e-p270:32:32-p271:32:32-p272:64:64-i64:64-i128:128-f80:128-n8:16:32:64-S128"
target triple = "x86_64-pc-linux-gnu"

%"class.tbb::detail::r1::control_storage" = type <{ ptr, i64, %"class.std::set", %"class.tbb::detail::d1::spin_mutex", [7 x i8] }>
%"class.std::set" = type { %"class.std::_Rb_tree" }
%"class.std::_Rb_tree" = type { %"struct.std::_Rb_tree<tbb::detail::d1::global_control *, tbb::detail::d1::global_control *, std::_Identity<tbb::detail::d1::global_control *>, tbb::detail::r1::control_storage_comparator, tbb::detail::d1::tbb_allocator<tbb::detail::d1::global_control *>>::_Rb_tree_impl" }
%"struct.std::_Rb_tree<tbb::detail::d1::global_control *, tbb::detail::d1::global_control *, std::_Identity<tbb::detail::d1::global_control *>, tbb::detail::r1::control_storage_comparator, tbb::detail::d1::tbb_allocator<tbb::detail::d1::global_control *>>::_Rb_tree_impl" = type { [8 x i8], %"struct.std::_Rb_tree_header" }
%"struct.std::_Rb_tree_header" = type { %"struct.std::_Rb_tree_node_base", i64 }
%"struct.std::_Rb_tree_node_base" = type { i32, ptr, ptr, ptr }
%"class.tbb::detail::d1::spin_mutex" = type { %"struct.std::atomic" }
%"struct.std::atomic" = type { %"struct.std::__atomic_base" }
%"struct.std::__atomic_base" = type { i8 }

@_ZN3tbb6detail2r1L8controlsE = internal global [4 x ptr] zeroinitializer, align 16

; Function Attrs: noinline noreturn nounwind sspstrong uwtable
define linkonce_odr hidden void @__clang_call_terminate(ptr noundef %0) #7 comdat {
  %2 = call ptr @__cxa_begin_catch(ptr %0) #10
  call void @_ZSt9terminatev() #16
  unreachable
}

; Function Attrs: mustprogress nounwind sspstrong uwtable
define linkonce_odr noundef i32 @_ZStanSt12memory_orderSt23__memory_order_modifier(i32 noundef %0, i32 noundef %1) #6 comdat {
  %3 = alloca i32, align 4
  %4 = alloca i32, align 4
  store i32 %0, ptr %3, align 4, !tbaa !105
  store i32 %1, ptr %4, align 4, !tbaa !108
  %5 = load i32, ptr %3, align 4, !tbaa !105
  %6 = load i32, ptr %4, align 4, !tbaa !108
  %7 = and i32 %5, %6
  ret i32 %7
}

; Function Attrs: alwaysinline mustprogress nounwind sspstrong uwtable
define linkonce_odr void @_ZNSt13__atomic_baseIbE5storeEbSt12memory_order(ptr noundef nonnull align 1 dereferenceable(1) %0, i1 noundef zeroext %1, i32 noundef %2) #11 comdat align 2 personality ptr @__gxx_personality_v0 {
  %4 = alloca ptr, align 8
  %5 = alloca i8, align 1
  %6 = alloca i32, align 4
  %7 = alloca i32, align 4
  %8 = alloca i8, align 1
  store ptr %0, ptr %4, align 8, !tbaa !75
  %9 = zext i1 %1 to i8
  store i8 %9, ptr %5, align 1, !tbaa !69
  store i32 %2, ptr %6, align 4, !tbaa !105
  %10 = load ptr, ptr %4, align 8
  call void @llvm.lifetime.start.p0(i64 4, ptr %7) #10
  %11 = load i32, ptr %6, align 4, !tbaa !105
  %12 = invoke noundef i32 @_ZStanSt12memory_orderSt23__memory_order_modifier(i32 noundef %11, i32 noundef 65535)
          to label %13 unwind label %35

13:                                               ; preds = %3
  store i32 %12, ptr %7, align 4, !tbaa !105
  br label %14

14:                                               ; preds = %13
  br label %15

15:                                               ; preds = %14
  br label %16

16:                                               ; preds = %15
  br label %17

17:                                               ; preds = %16
  br label %18

18:                                               ; preds = %17
  br label %19

19:                                               ; preds = %18
  br label %20

20:                                               ; preds = %19
  br label %21

21:                                               ; preds = %20
  br label %22

22:                                               ; preds = %21
  %23 = getelementptr inbounds nuw %"struct.std::__atomic_base", ptr %10, i32 0, i32 0
  %24 = load i32, ptr %6, align 4, !tbaa !105
  %25 = load i8, ptr %5, align 1, !tbaa !69, !range !70, !noundef !71
  %26 = trunc i8 %25 to i1
  %27 = zext i1 %26 to i8
  store i8 %27, ptr %8, align 1, !tbaa !69
  switch i32 %24, label %28 [
    i32 3, label %30
    i32 5, label %32
  ]

28:                                               ; preds = %22
  %29 = load i8, ptr %8, align 1
  store atomic i8 %29, ptr %23 monotonic, align 1
  br label %34

30:                                               ; preds = %22
  %31 = load i8, ptr %8, align 1
  store atomic i8 %31, ptr %23 release, align 1
  br label %34

32:                                               ; preds = %22
  %33 = load i8, ptr %8, align 1
  store atomic i8 %33, ptr %23 seq_cst, align 1
  br label %34

34:                                               ; preds = %32, %30, %28
  call void @llvm.lifetime.end.p0(i64 4, ptr %7) #10
  ret void

35:                                               ; preds = %3
  %36 = landingpad { ptr, i32 }
          catch ptr null
  %37 = extractvalue { ptr, i32 } %36, 0
  call void @__clang_call_terminate(ptr %37) #16
  unreachable
}

; Function Attrs: mustprogress nounwind sspstrong uwtable
define linkonce_odr void @_ZNSt6atomicIbE5storeEbSt12memory_order(ptr noundef nonnull align 1 dereferenceable(1) %0, i1 noundef zeroext %1, i32 noundef %2) #6 comdat align 2 {
  %4 = alloca ptr, align 8
  %5 = alloca i8, align 1
  %6 = alloca i32, align 4
  store ptr %0, ptr %4, align 8, !tbaa !67
  %7 = zext i1 %1 to i8
  store i8 %7, ptr %5, align 1, !tbaa !69
  store i32 %2, ptr %6, align 4, !tbaa !105
  %8 = load ptr, ptr %4, align 8
  %9 = getelementptr inbounds nuw %"struct.std::atomic", ptr %8, i32 0, i32 0
  %10 = load i8, ptr %5, align 1, !tbaa !69, !range !70, !noundef !71
  %11 = trunc i8 %10 to i1
  %12 = load i32, ptr %6, align 4, !tbaa !105
  call void @_ZNSt13__atomic_baseIbE5storeEbSt12memory_order(ptr noundef nonnull align 1 dereferenceable(1) %9, i1 noundef zeroext %11, i32 noundef %12) #10
  ret void
}

; Function Attrs: inlinehint mustprogress nounwind sspstrong uwtable
define linkonce_odr void @_ZN3tbb6detail2d115call_itt_notifyENS1_11notify_typeEPv(i32 noundef %0, ptr noundef %1) #3 comdat {
  %3 = alloca i32, align 4
  %4 = alloca ptr, align 8
  store i32 %0, ptr %3, align 4, !tbaa !103
  store ptr %1, ptr %4, align 8, !tbaa !72
  ret void
}

; Function Attrs: inlinehint mustprogress nounwind sspstrong uwtable
define linkonce_odr noundef i64 @_ZSt10__distanceIPPN3tbb6detail2r115control_storageEENSt15iterator_traitsIT_E15difference_typeES7_S7_St26random_access_iterator_tag(ptr noundef %0, ptr noundef %1) #3 comdat {
  %3 = alloca ptr, align 8
  %4 = alloca ptr, align 8
  store ptr %0, ptr %3, align 8, !tbaa !18
  store ptr %1, ptr %4, align 8, !tbaa !18
  %5 = load ptr, ptr %4, align 8, !tbaa !18
  %6 = load ptr, ptr %3, align 8, !tbaa !18
  %7 = ptrtoint ptr %5 to i64
  %8 = ptrtoint ptr %6 to i64
  %9 = sub i64 %7, %8
  %10 = sdiv exact i64 %9, 8
  ret i64 %10
}

; Function Attrs: inlinehint mustprogress nounwind sspstrong uwtable
define linkonce_odr void @_ZSt19__iterator_categoryIPPN3tbb6detail2r115control_storageEENSt15iterator_traitsIT_E17iterator_categoryERKS7_(ptr noundef nonnull align 8 dereferenceable(8) %0) #3 comdat {
  %2 = alloca ptr, align 8
  store ptr %0, ptr %2, align 8, !tbaa !148
  ret void
}

; Function Attrs: mustprogress nounwind sspstrong uwtable
define linkonce_odr void @_ZN3tbb6detail2d110spin_mutex6unlockEv(ptr noundef nonnull align 1 dereferenceable(1) %0) #6 comdat align 2 {
  %2 = alloca ptr, align 8
  store ptr %0, ptr %2, align 8, !tbaa !21
  %3 = load ptr, ptr %2, align 8
  call void @_ZN3tbb6detail2d115call_itt_notifyENS1_11notify_typeEPv(i32 noundef 3, ptr noundef %3)
  %4 = getelementptr inbounds nuw %"class.tbb::detail::d1::spin_mutex", ptr %3, i32 0, i32 0
  call void @_ZNSt6atomicIbE5storeEbSt12memory_order(ptr noundef nonnull align 1 dereferenceable(1) %4, i1 noundef zeroext false, i32 noundef 3) #10
  ret void
}

; Function Attrs: inlinehint mustprogress sspstrong uwtable
define linkonce_odr noundef i64 @_ZSt8distanceIPPN3tbb6detail2r115control_storageEENSt15iterator_traitsIT_E15difference_typeES7_S7_(ptr noundef %0, ptr noundef %1) #5 comdat {
  %3 = alloca ptr, align 8
  %4 = alloca ptr, align 8
  store ptr %0, ptr %3, align 8, !tbaa !18
  store ptr %1, ptr %4, align 8, !tbaa !18
  %5 = load ptr, ptr %3, align 8, !tbaa !18
  %6 = load ptr, ptr %4, align 8, !tbaa !18
  call void @_ZSt19__iterator_categoryIPPN3tbb6detail2r115control_storageEENSt15iterator_traitsIT_E17iterator_categoryERKS7_(ptr noundef nonnull align 8 dereferenceable(8) %3)
  %7 = call noundef i64 @_ZSt10__distanceIPPN3tbb6detail2r115control_storageEENSt15iterator_traitsIT_E15difference_typeES7_S7_St26random_access_iterator_tag(ptr noundef %5, ptr noundef %6)
  ret i64 %7
}

; Function Attrs: inlinehint mustprogress nounwind sspstrong uwtable
define linkonce_odr noundef ptr @_ZSt3endIPN3tbb6detail2r115control_storageELm4EEPT_RAT0__S5_(ptr noundef nonnull align 8 dereferenceable(32) %0) #3 comdat {
  %2 = alloca ptr, align 8
  store ptr %0, ptr %2, align 8, !tbaa !18
  %3 = load ptr, ptr %2, align 8, !tbaa !18
  %4 = getelementptr inbounds [4 x ptr], ptr %3, i64 0, i64 0
  %5 = getelementptr inbounds nuw ptr, ptr %4, i64 4
  ret ptr %5
}

; Function Attrs: inlinehint mustprogress nounwind sspstrong uwtable
define linkonce_odr noundef ptr @_ZSt5beginIPN3tbb6detail2r115control_storageELm4EEPT_RAT0__S5_(ptr noundef nonnull align 8 dereferenceable(32) %0) #3 comdat {
  %2 = alloca ptr, align 8
  store ptr %0, ptr %2, align 8, !tbaa !18
  %3 = load ptr, ptr %2, align 8, !tbaa !18
  %4 = getelementptr inbounds [4 x ptr], ptr %3, i64 0, i64 0
  ret ptr %4
}

; Function Attrs: mustprogress sspstrong uwtable
define void @_ZN3tbb6detail2r121global_control_unlockEv() #0 {
  %1 = alloca i32, align 4
  %2 = alloca i32, align 4
  call void @llvm.lifetime.start.p0(i64 4, ptr %1) #10
  %3 = call noundef ptr @_ZSt5beginIPN3tbb6detail2r115control_storageELm4EEPT_RAT0__S5_(ptr noundef nonnull align 8 dereferenceable(32) @_ZN3tbb6detail2r1L8controlsE) #10
  %4 = call noundef ptr @_ZSt3endIPN3tbb6detail2r115control_storageELm4EEPT_RAT0__S5_(ptr noundef nonnull align 8 dereferenceable(32) @_ZN3tbb6detail2r1L8controlsE) #10
  %5 = call noundef i64 @_ZSt8distanceIPPN3tbb6detail2r115control_storageEENSt15iterator_traitsIT_E15difference_typeES7_S7_(ptr noundef %3, ptr noundef %4)
  %6 = trunc i64 %5 to i32
  store i32 %6, ptr %1, align 4, !tbaa !25
  call void @llvm.lifetime.start.p0(i64 4, ptr %2) #10
  %7 = load i32, ptr %1, align 4, !tbaa !25
  %8 = sub nsw i32 %7, 1
  store i32 %8, ptr %2, align 4, !tbaa !25
  br label %9

9:                                                ; preds = %19, %0
  %10 = load i32, ptr %2, align 4, !tbaa !25
  %11 = icmp sge i32 %10, 0
  br i1 %11, label %13, label %12

12:                                               ; preds = %9
  call void @llvm.lifetime.end.p0(i64 4, ptr %2) #10
  br label %22

13:                                               ; preds = %9
  %14 = load i32, ptr %2, align 4, !tbaa !25
  %15 = sext i32 %14 to i64
  %16 = getelementptr inbounds [4 x ptr], ptr @_ZN3tbb6detail2r1L8controlsE, i64 0, i64 %15
  %17 = load ptr, ptr %16, align 8, !tbaa !3
  %18 = getelementptr inbounds nuw %"class.tbb::detail::r1::control_storage", ptr %17, i32 0, i32 3
  call void @_ZN3tbb6detail2d110spin_mutex6unlockEv(ptr noundef nonnull align 1 dereferenceable(1) %18)
  br label %19

19:                                               ; preds = %13
  %20 = load i32, ptr %2, align 4, !tbaa !25
  %21 = add nsw i32 %20, -1
  store i32 %21, ptr %2, align 4, !tbaa !25
  br label %9, !llvm.loop !27

22:                                               ; preds = %12
  call void @llvm.lifetime.end.p0(i64 4, ptr %1) #10
  ret void
}