; Function Attrs: mustprogress nofree norecurse nounwind sspstrong memory(readwrite, inaccessiblemem: none) uwtable
define void @_ZN3tbb6detail2r121global_control_unlockEv() local_unnamed_addr #5 personality ptr @__gxx_personality_v0 {
  br label %2

1:                                                ; preds = %2
  ret void

2:                                                ; preds = %0, %2
  %indvars.iv = phi i64 [ 4, %0 ], [ %indvars.iv.next, %2 ]
  %indvars.iv.next = add nsw i64 %indvars.iv, -1
  %3 = getelementptr inbounds nuw [4 x ptr], ptr @_ZN3tbb6detail2r1L8controlsE, i64 0, i64 %indvars.iv.next
  %4 = load ptr, ptr %3, align 8, !tbaa !18
  %5 = getelementptr inbounds nuw i8, ptr %4, i64 64
  store atomic i8 0, ptr %5 release, align 1
  %6 = icmp ugt i64 %indvars.iv, 1
  br i1 %6, label %2, label %1, !llvm.loop !23
}